target datalayout = "e-m:e-p270:32:32-p271:32:32-p272:64:64-i64:64-i128:128-f80:128-n8:16:32:64-S128"
target triple = "x86_64-pc-linux-gnu"

%struct.H5B2_internal_t = type { %struct.H5C_cache_entry_t, ptr, ptr, ptr, i16, i16, ptr, ptr, i64 }
%struct.H5C_cache_entry_t = type { ptr, i64, i64, ptr, i8, ptr, i8, i8, i8, i8, i32, i8, i8, i8, i8, i8, i32, ptr, i32, i32, i32, i32, i32, i8, i8, ptr, ptr, ptr, ptr, ptr, ptr, i8, i32, i8, i64, ptr, i64, i64, i32, i8, i32, i32, i8, ptr, ptr, ptr }
%struct.H5B2_hdr_t = type { %struct.H5C_cache_entry_t, %struct.H5B2_node_ptr_t, i8, i8, i32, i32, i16, i8, ptr, i64, i64, i64, i64, i8, i8, i8, ptr, ptr, ptr, ptr, ptr, ptr, ptr, i8, ptr, ptr, i64, ptr, ptr }
%struct.H5B2_node_ptr_t = type { i64, i16, i64 }
%struct.H5B2_node_info_t = type { i32, i32, i32, i64, i8, ptr, ptr }

@H5_H5B2_internal_t_reg_free_list = global { i8, [3 x i8], i32, i32, [4 x i8], ptr, i64, ptr } { i8 0, [3 x i8] zeroinitializer, i32 0, i32 0, [4 x i8] zeroinitializer, ptr @.str, i64 304, ptr null }, align 8
@H5B2_init_g = external global i8, align 1
@H5_libterm_g = external global i8, align 1
@.str.1 = private unnamed_addr constant [106 x i8] c"generated/home/dtcxzyw/WorkSpace/Projects/compilers/llvm-opt-benchmark/bench/hdf5/hdf5/src/H5B2internal.c\00", align 1
@H5E_BTREE_g = external global i64, align 8
@__func__.H5B2__internal_free = private unnamed_addr constant [20 x i8] c"H5B2__internal_free\00", align 1
@H5E_CANTDEC_g = external global i64, align 8
@.str.38 = private unnamed_addr constant [44 x i8] c"can't decrement ref. count on B-tree header\00", align 1

; Function Attrs: nounwind uwtable
define i32 @H5B2__internal_free(ptr noundef %0) #0 {
  %2 = alloca ptr, align 8
  %3 = alloca i32, align 4
  %4 = alloca i8, align 1
  store ptr %0, ptr %2, align 8, !tbaa !11
  call void @llvm.lifetime.start.p0(i64 4, ptr %3) #5
  store i32 0, ptr %3, align 4, !tbaa !15
  call void @llvm.lifetime.start.p0(i64 1, ptr %4) #5
  store i8 0, ptr %4, align 1, !tbaa !13
  %5 = load i8, ptr @H5B2_init_g, align 1, !tbaa !13, !range !17, !noundef !18
  %6 = trunc i8 %5 to i1
  br i1 %6, label %11, label %7

7:                                                ; preds = %1
  %8 = load i8, ptr @H5_libterm_g, align 1, !tbaa !13, !range !17, !noundef !18
  %9 = trunc i8 %8 to i1
  %10 = xor i1 %9, true
  br label %11

11:                                               ; preds = %7, %1
  %12 = phi i1 [ true, %1 ], [ %10, %7 ]
  %13 = xor i1 %12, true
  %14 = xor i1 %13, true
  %15 = zext i1 %14 to i32
  %16 = sext i32 %15 to i64
  %17 = call i64 @llvm.expect.i64(i64 %16, i64 1)
  %18 = icmp ne i64 %17, 0
  br i1 %18, label %19, label %96

19:                                               ; preds = %11
  %20 = load ptr, ptr %2, align 8, !tbaa !11
  %21 = getelementptr inbounds nuw %struct.H5B2_internal_t, ptr %20, i32 0, i32 2
  %22 = load ptr, ptr %21, align 8, !tbaa !40
  %23 = icmp ne ptr %22, null
  br i1 %23, label %24, label %43

24:                                               ; preds = %19
  %25 = load ptr, ptr %2, align 8, !tbaa !11
  %26 = getelementptr inbounds nuw %struct.H5B2_internal_t, ptr %25, i32 0, i32 1
  %27 = load ptr, ptr %26, align 8, !tbaa !21
  %28 = getelementptr inbounds nuw %struct.H5B2_hdr_t, ptr %27, i32 0, i32 20
  %29 = load ptr, ptr %28, align 8, !tbaa !32
  %30 = load ptr, ptr %2, align 8, !tbaa !11
  %31 = getelementptr inbounds nuw %struct.H5B2_internal_t, ptr %30, i32 0, i32 5
  %32 = load i16, ptr %31, align 2, !tbaa !47
  %33 = zext i16 %32 to i64
  %34 = getelementptr inbounds nuw %struct.H5B2_node_info_t, ptr %29, i64 %33
  %35 = getelementptr inbounds nuw %struct.H5B2_node_info_t, ptr %34, i32 0, i32 5
  %36 = load ptr, ptr %35, align 8, !tbaa !37
  %37 = load ptr, ptr %2, align 8, !tbaa !11
  %38 = getelementptr inbounds nuw %struct.H5B2_internal_t, ptr %37, i32 0, i32 2
  %39 = load ptr, ptr %38, align 8, !tbaa !40
  %40 = call ptr @H5FL_fac_free(ptr noundef %36, ptr noundef %39)
  %41 = load ptr, ptr %2, align 8, !tbaa !11
  %42 = getelementptr inbounds nuw %struct.H5B2_internal_t, ptr %41, i32 0, i32 2
  store ptr %40, ptr %42, align 8, !tbaa !40
  br label %43

43:                                               ; preds = %24, %19
  %44 = load ptr, ptr %2, align 8, !tbaa !11
  %45 = getelementptr inbounds nuw %struct.H5B2_internal_t, ptr %44, i32 0, i32 3
  %46 = load ptr, ptr %45, align 8, !tbaa !46
  %47 = icmp ne ptr %46, null
  br i1 %47, label %48, label %67

48:                                               ; preds = %43
  %49 = load ptr, ptr %2, align 8, !tbaa !11
  %50 = getelementptr inbounds nuw %struct.H5B2_internal_t, ptr %49, i32 0, i32 1
  %51 = load ptr, ptr %50, align 8, !tbaa !21
  %52 = getelementptr inbounds nuw %struct.H5B2_hdr_t, ptr %51, i32 0, i32 20
  %53 = load ptr, ptr %52, align 8, !tbaa !32
  %54 = load ptr, ptr %2, align 8, !tbaa !11
  %55 = getelementptr inbounds nuw %struct.H5B2_internal_t, ptr %54, i32 0, i32 5
  %56 = load i16, ptr %55, align 2, !tbaa !47
  %57 = zext i16 %56 to i64
  %58 = getelementptr inbounds nuw %struct.H5B2_node_info_t, ptr %53, i64 %57
  %59 = getelementptr inbounds nuw %struct.H5B2_node_info_t, ptr %58, i32 0, i32 6
  %60 = load ptr, ptr %59, align 8, !tbaa !45
  %61 = load ptr, ptr %2, align 8, !tbaa !11
  %62 = getelementptr inbounds nuw %struct.H5B2_internal_t, ptr %61, i32 0, i32 3
  %63 = load ptr, ptr %62, align 8, !tbaa !46
  %64 = call ptr @H5FL_fac_free(ptr noundef %60, ptr noundef %63)
  %65 = load ptr, ptr %2, align 8, !tbaa !11
  %66 = getelementptr inbounds nuw %struct.H5B2_internal_t, ptr %65, i32 0, i32 3
  store ptr %64, ptr %66, align 8, !tbaa !46
  br label %67

67:                                               ; preds = %48, %43
  %68 = load ptr, ptr %2, align 8, !tbaa !11
  %69 = getelementptr inbounds nuw %struct.H5B2_internal_t, ptr %68, i32 0, i32 1
  %70 = load ptr, ptr %69, align 8, !tbaa !21
  %71 = call i32 @H5B2__hdr_decr(ptr noundef %70)
  %72 = icmp slt i32 %71, 0
  br i1 %72, label %73, label %92

73:                                               ; preds = %67
  br label %74

74:                                               ; preds = %73
  br label %75

75:                                               ; preds = %74
  br label %76

76:                                               ; preds = %75
  %77 = load i64, ptr @H5E_BTREE_g, align 8, !tbaa !19
  %78 = load i64, ptr @H5E_CANTDEC_g, align 8, !tbaa !19
  %79 = call i32 (ptr, ptr, i32, i64, i64, ptr, ...) @H5E_printf_stack(ptr noundef @.str.1, ptr noundef @__func__.H5B2__internal_free, i32 noundef 1336, i64 noundef %77, i64 noundef %78, ptr noundef @.str.38)
  br label %80

80:                                               ; preds = %76
  br label %81

81:                                               ; preds = %80
  store i8 1, ptr %4, align 1, !tbaa !13
  %82 = load i8, ptr %4, align 1, !tbaa !13, !range !17, !noundef !18
  %83 = trunc i8 %82 to i1
  %84 = zext i1 %83 to i8
  store i8 %84, ptr %4, align 1, !tbaa !13
  br label %85

85:                                               ; preds = %81
  br label %86

86:                                               ; preds = %85
  br label %87

87:                                               ; preds = %86
  store i32 -1, ptr %3, align 4, !tbaa !15
  br label %95

88:                                               ; No predecessors!
  br label %89

89:                                               ; preds = %88
  br label %90

90:                                               ; preds = %89
  br label %91

91:                                               ; preds = %90
  br label %92

92:                                               ; preds = %91, %67
  %93 = load ptr, ptr %2, align 8, !tbaa !11
  %94 = call ptr @H5FL_reg_free(ptr noundef @H5_H5B2_internal_t_reg_free_list, ptr noundef %93)
  store ptr %94, ptr %2, align 8, !tbaa !11
  br label %95

95:                                               ; preds = %92, %87
  br label %96

96:                                               ; preds = %95, %11
  %97 = load i32, ptr %3, align 4, !tbaa !15
  call void @llvm.lifetime.end.p0(i64 1, ptr %4) #5
  call void @llvm.lifetime.end.p0(i64 4, ptr %3) #5
  ret i32 %97
}