; Function Attrs: nounwind uwtable
define range(i32 -1, 1) i32 @H5B2__internal_free(ptr noundef %0) local_unnamed_addr #0 {
  %2 = load i8, ptr @H5B2_init_g, align 1, !tbaa !3, !range !7, !noundef !8
  %3 = trunc nuw i8 %2 to i1
  %4 = load i8, ptr @H5_libterm_g, align 1, !range !7
  %5 = trunc nuw i8 %4 to i1
  %6 = xor i1 %5, true
  %7 = select i1 %3, i1 true, i1 %6
  br i1 %7, label %8, label %47, !prof !9

8:                                                ; preds = %1
  %9 = getelementptr inbounds nuw i8, ptr %0, i64 256
  %10 = load ptr, ptr %9, align 8, !tbaa !35
  %.not = icmp eq ptr %10, null
  br i1 %.not, label %22, label %11

11:                                               ; preds = %8
  %12 = getelementptr inbounds nuw i8, ptr %0, i64 248
  %13 = load ptr, ptr %12, align 8, !tbaa !12
  %14 = getelementptr inbounds nuw i8, ptr %13, i64 368
  %15 = load ptr, ptr %14, align 8, !tbaa !27
  %16 = getelementptr inbounds nuw i8, ptr %0, i64 274
  %17 = load i16, ptr %16, align 2, !tbaa !42
  %18 = zext i16 %17 to i64
  %19 = getelementptr inbounds nuw %struct.H5B2_node_info_t, ptr %15, i64 %18, i32 5
  %20 = load ptr, ptr %19, align 8, !tbaa !32
  %21 = tail call ptr @H5FL_fac_free(ptr noundef %20, ptr noundef nonnull %10) #4
  store ptr %21, ptr %9, align 8, !tbaa !35
  br label %22

22:                                               ; preds = %11, %8
  %23 = getelementptr inbounds nuw i8, ptr %0, i64 264
  %24 = load ptr, ptr %23, align 8, !tbaa !41
  %.not15 = icmp eq ptr %24, null
  br i1 %.not15, label %36, label %25

25:                                               ; preds = %22
  %26 = getelementptr inbounds nuw i8, ptr %0, i64 248
  %27 = load ptr, ptr %26, align 8, !tbaa !12
  %28 = getelementptr inbounds nuw i8, ptr %27, i64 368
  %29 = load ptr, ptr %28, align 8, !tbaa !27
  %30 = getelementptr inbounds nuw i8, ptr %0, i64 274
  %31 = load i16, ptr %30, align 2, !tbaa !42
  %32 = zext i16 %31 to i64
  %33 = getelementptr inbounds nuw %struct.H5B2_node_info_t, ptr %29, i64 %32, i32 6
  %34 = load ptr, ptr %33, align 8, !tbaa !40
  %35 = tail call ptr @H5FL_fac_free(ptr noundef %34, ptr noundef nonnull %24) #4
  store ptr %35, ptr %23, align 8, !tbaa !41
  br label %36

36:                                               ; preds = %25, %22
  %37 = getelementptr inbounds nuw i8, ptr %0, i64 248
  %38 = load ptr, ptr %37, align 8, !tbaa !12
  %39 = tail call i32 @H5B2__hdr_decr(ptr noundef %38) #4
  %40 = icmp slt i32 %39, 0
  br i1 %40, label %41, label %45

41:                                               ; preds = %36
  %42 = load i64, ptr @H5E_BTREE_g, align 8, !tbaa !10
  %43 = load i64, ptr @H5E_CANTDEC_g, align 8, !tbaa !10
  %44 = tail call i32 (ptr, ptr, i32, i64, i64, ptr, ...) @H5E_printf_stack(ptr noundef nonnull @.str.1, ptr noundef nonnull @__func__.H5B2__internal_free, i32 noundef 1336, i64 noundef %42, i64 noundef %43, ptr noundef nonnull @.str.38) #4
  br label %47

45:                                               ; preds = %36
  %46 = tail call ptr @H5FL_reg_free(ptr noundef nonnull @H5_H5B2_internal_t_reg_free_list, ptr noundef nonnull %0) #4
  br label %47

47:                                               ; preds = %41, %45, %1
  %.0 = phi i32 [ -1, %41 ], [ 0, %45 ], [ 0, %1 ]
  ret i32 %.0
}